target datalayout = "e-m:e-p270:32:32-p271:32:32-p272:64:64-i64:64-i128:128-f80:128-n8:16:32:64-S128"
target triple = "x86_64-pc-linux-gnu"

%struct.Odc_Man_t_ = type { i32, i32, i32, i32, i32, i32, ptr, ptr, ptr, ptr, i32, i32, i32, ptr, i16, i16, ptr, i32, ptr, i32, i32, ptr, ptr, ptr, i32, i32, i32, i32, i32, i32, i64, i64, i64, i64, i64, i64, i64, i64 }
%struct.Odc_Obj_t_ = type { i16, i16, i16, i16, i32, i32 }
%struct.Vec_Ptr_t_ = type { i32, i32, ptr }

; Function Attrs: inlinehint nounwind uwtable
define internal i32 @Odc_IsComplement(i16 noundef zeroext %0) #5 {
  %2 = alloca i16, align 2
  store i16 %0, ptr %2, align 2, !tbaa !59
  %3 = load i16, ptr %2, align 2, !tbaa !59
  %4 = zext i16 %3 to i32
  %5 = and i32 %4, 1
  ret i32 %5
}

; Function Attrs: inlinehint nounwind uwtable
define internal zeroext i16 @Odc_Regular(i16 noundef zeroext %0) #5 {
  %2 = alloca i16, align 2
  store i16 %0, ptr %2, align 2, !tbaa !59
  %3 = load i16, ptr %2, align 2, !tbaa !59
  %4 = zext i16 %3 to i32
  %5 = and i32 %4, -2
  %6 = trunc i32 %5 to i16
  ret i16 %6
}

; Function Attrs: inlinehint nounwind uwtable
define internal ptr @Vec_PtrEntry(ptr noundef %0, i32 noundef %1) #5 {
  %3 = alloca ptr, align 8
  %4 = alloca i32, align 4
  store ptr %0, ptr %3, align 8, !tbaa !47
  store i32 %1, ptr %4, align 4, !tbaa !3
  %5 = load ptr, ptr %3, align 8, !tbaa !47
  %6 = getelementptr inbounds nuw %struct.Vec_Ptr_t_, ptr %5, i32 0, i32 2
  %7 = load ptr, ptr %6, align 8, !tbaa !51
  %8 = load i32, ptr %4, align 4, !tbaa !3
  %9 = sext i32 %8 to i64
  %10 = getelementptr inbounds ptr, ptr %7, i64 %9
  %11 = load ptr, ptr %10, align 8, !tbaa !57
  ret ptr %11
}

; Function Attrs: inlinehint nounwind uwtable
define internal i32 @Odc_ObjFaninC1(ptr noundef %0) #5 {
  %2 = alloca ptr, align 8
  store ptr %0, ptr %2, align 8, !tbaa !115
  %3 = load ptr, ptr %2, align 8, !tbaa !115
  %4 = getelementptr inbounds nuw %struct.Odc_Obj_t_, ptr %3, i32 0, i32 1
  %5 = load i16, ptr %4, align 2, !tbaa !117
  %6 = call i32 @Odc_IsComplement(i16 noundef zeroext %5)
  ret i32 %6
}

; Function Attrs: inlinehint nounwind uwtable
define internal i32 @Odc_ObjFaninC0(ptr noundef %0) #5 {
  %2 = alloca ptr, align 8
  store ptr %0, ptr %2, align 8, !tbaa !115
  %3 = load ptr, ptr %2, align 8, !tbaa !115
  %4 = getelementptr inbounds nuw %struct.Odc_Obj_t_, ptr %3, i32 0, i32 0
  %5 = load i16, ptr %4, align 4, !tbaa !116
  %6 = call i32 @Odc_IsComplement(i16 noundef zeroext %5)
  ret i32 %6
}

; Function Attrs: inlinehint nounwind uwtable
define internal zeroext i16 @Odc_ObjFanin1(ptr noundef %0) #5 {
  %2 = alloca ptr, align 8
  store ptr %0, ptr %2, align 8, !tbaa !115
  %3 = load ptr, ptr %2, align 8, !tbaa !115
  %4 = getelementptr inbounds nuw %struct.Odc_Obj_t_, ptr %3, i32 0, i32 1
  %5 = load i16, ptr %4, align 2, !tbaa !117
  %6 = call zeroext i16 @Odc_Regular(i16 noundef zeroext %5)
  ret i16 %6
}

; Function Attrs: inlinehint nounwind uwtable
define internal zeroext i16 @Odc_ObjFanin0(ptr noundef %0) #5 {
  %2 = alloca ptr, align 8
  store ptr %0, ptr %2, align 8, !tbaa !115
  %3 = load ptr, ptr %2, align 8, !tbaa !115
  %4 = getelementptr inbounds nuw %struct.Odc_Obj_t_, ptr %3, i32 0, i32 0
  %5 = load i16, ptr %4, align 4, !tbaa !116
  %6 = call zeroext i16 @Odc_Regular(i16 noundef zeroext %5)
  ret i16 %6
}

; Function Attrs: inlinehint nounwind uwtable
define internal ptr @Odc_ObjTruth(ptr noundef %0, i16 noundef zeroext %1) #5 {
  %3 = alloca ptr, align 8
  %4 = alloca i16, align 2
  store ptr %0, ptr %3, align 8, !tbaa !7
  store i16 %1, ptr %4, align 2, !tbaa !59
  %5 = load ptr, ptr %3, align 8, !tbaa !7
  %6 = getelementptr inbounds nuw %struct.Odc_Man_t_, ptr %5, i32 0, i32 21
  %7 = load ptr, ptr %6, align 8, !tbaa !40
  %8 = load i16, ptr %4, align 2, !tbaa !59
  %9 = zext i16 %8 to i32
  %10 = ashr i32 %9, 1
  %11 = call ptr @Vec_PtrEntry(ptr noundef %7, i32 noundef %10)
  ret ptr %11
}

; Function Attrs: inlinehint nounwind uwtable
define internal ptr @Odc_Lit2Obj(ptr noundef %0, i16 noundef zeroext %1) #5 {
  %3 = alloca ptr, align 8
  %4 = alloca i16, align 2
  store ptr %0, ptr %3, align 8, !tbaa !7
  store i16 %1, ptr %4, align 2, !tbaa !59
  %5 = load ptr, ptr %3, align 8, !tbaa !7
  %6 = getelementptr inbounds nuw %struct.Odc_Man_t_, ptr %5, i32 0, i32 13
  %7 = load ptr, ptr %6, align 8, !tbaa !28
  %8 = load i16, ptr %4, align 2, !tbaa !59
  %9 = zext i16 %8 to i32
  %10 = ashr i32 %9, 1
  %11 = sext i32 %10 to i64
  %12 = getelementptr inbounds %struct.Odc_Obj_t_, ptr %7, i64 %11
  ret ptr %12
}

; Function Attrs: nounwind uwtable
define void @Abc_NtkDontCareTruthOne(ptr noundef %0, i16 noundef zeroext %1) #0 {
  %3 = alloca ptr, align 8
  %4 = alloca i16, align 2
  %5 = alloca ptr, align 8
  %6 = alloca ptr, align 8
  %7 = alloca ptr, align 8
  %8 = alloca ptr, align 8
  %9 = alloca i32, align 4
  %10 = alloca i32, align 4
  %11 = alloca i32, align 4
  store ptr %0, ptr %3, align 8, !tbaa !7
  store i16 %1, ptr %4, align 2, !tbaa !59
  call void @llvm.lifetime.start.p0(i64 8, ptr %5) #10
  call void @llvm.lifetime.start.p0(i64 8, ptr %6) #10
  call void @llvm.lifetime.start.p0(i64 8, ptr %7) #10
  call void @llvm.lifetime.start.p0(i64 8, ptr %8) #10
  call void @llvm.lifetime.start.p0(i64 4, ptr %9) #10
  call void @llvm.lifetime.start.p0(i64 4, ptr %10) #10
  call void @llvm.lifetime.start.p0(i64 4, ptr %11) #10
  %12 = load ptr, ptr %3, align 8, !tbaa !7
  %13 = load i16, ptr %4, align 2, !tbaa !59
  %14 = call ptr @Odc_Lit2Obj(ptr noundef %12, i16 noundef zeroext %13)
  store ptr %14, ptr %5, align 8, !tbaa !115
  %15 = load ptr, ptr %3, align 8, !tbaa !7
  %16 = load i16, ptr %4, align 2, !tbaa !59
  %17 = call ptr @Odc_ObjTruth(ptr noundef %15, i16 noundef zeroext %16)
  store ptr %17, ptr %6, align 8, !tbaa !42
  %18 = load ptr, ptr %3, align 8, !tbaa !7
  %19 = load ptr, ptr %5, align 8, !tbaa !115
  %20 = call zeroext i16 @Odc_ObjFanin0(ptr noundef %19)
  %21 = call ptr @Odc_ObjTruth(ptr noundef %18, i16 noundef zeroext %20)
  store ptr %21, ptr %7, align 8, !tbaa !42
  %22 = load ptr, ptr %3, align 8, !tbaa !7
  %23 = load ptr, ptr %5, align 8, !tbaa !115
  %24 = call zeroext i16 @Odc_ObjFanin1(ptr noundef %23)
  %25 = call ptr @Odc_ObjTruth(ptr noundef %22, i16 noundef zeroext %24)
  store ptr %25, ptr %8, align 8, !tbaa !42
  %26 = load ptr, ptr %5, align 8, !tbaa !115
  %27 = call i32 @Odc_ObjFaninC0(ptr noundef %26)
  store i32 %27, ptr %10, align 4, !tbaa !3
  %28 = load ptr, ptr %5, align 8, !tbaa !115
  %29 = call i32 @Odc_ObjFaninC1(ptr noundef %28)
  store i32 %29, ptr %11, align 4, !tbaa !3
  %30 = load i32, ptr %10, align 4, !tbaa !3
  %31 = icmp ne i32 %30, 0
  br i1 %31, label %32, label %64

32:                                               ; preds = %2
  %33 = load i32, ptr %11, align 4, !tbaa !3
  %34 = icmp ne i32 %33, 0
  br i1 %34, label %35, label %64

35:                                               ; preds = %32
  store i32 0, ptr %9, align 4, !tbaa !3
  br label %36

36:                                               ; preds = %60, %35
  %37 = load i32, ptr %9, align 4, !tbaa !3
  %38 = load ptr, ptr %3, align 8, !tbaa !7
  %39 = getelementptr inbounds nuw %struct.Odc_Man_t_, ptr %38, i32 0, i32 20
  %40 = load i32, ptr %39, align 4, !tbaa !38
  %41 = icmp slt i32 %37, %40
  br i1 %41, label %42, label %63

42:                                               ; preds = %36
  %43 = load ptr, ptr %7, align 8, !tbaa !42
  %44 = load i32, ptr %9, align 4, !tbaa !3
  %45 = sext i32 %44 to i64
  %46 = getelementptr inbounds i32, ptr %43, i64 %45
  %47 = load i32, ptr %46, align 4, !tbaa !3
  %48 = xor i32 %47, -1
  %49 = load ptr, ptr %8, align 8, !tbaa !42
  %50 = load i32, ptr %9, align 4, !tbaa !3
  %51 = sext i32 %50 to i64
  %52 = getelementptr inbounds i32, ptr %49, i64 %51
  %53 = load i32, ptr %52, align 4, !tbaa !3
  %54 = xor i32 %53, -1
  %55 = and i32 %48, %54
  %56 = load ptr, ptr %6, align 8, !tbaa !42
  %57 = load i32, ptr %9, align 4, !tbaa !3
  %58 = sext i32 %57 to i64
  %59 = getelementptr inbounds i32, ptr %56, i64 %58
  store i32 %55, ptr %59, align 4, !tbaa !3
  br label %60

60:                                               ; preds = %42
  %61 = load i32, ptr %9, align 4, !tbaa !3
  %62 = add nsw i32 %61, 1
  store i32 %62, ptr %9, align 4, !tbaa !3
  br label %36, !llvm.loop !133

63:                                               ; preds = %36
  br label %161

64:                                               ; preds = %32, %2
  %65 = load i32, ptr %10, align 4, !tbaa !3
  %66 = icmp ne i32 %65, 0
  br i1 %66, label %67, label %98

67:                                               ; preds = %64
  %68 = load i32, ptr %11, align 4, !tbaa !3
  %69 = icmp ne i32 %68, 0
  br i1 %69, label %98, label %70

70:                                               ; preds = %67
  store i32 0, ptr %9, align 4, !tbaa !3
  br label %71

71:                                               ; preds = %94, %70
  %72 = load i32, ptr %9, align 4, !tbaa !3
  %73 = load ptr, ptr %3, align 8, !tbaa !7
  %74 = getelementptr inbounds nuw %struct.Odc_Man_t_, ptr %73, i32 0, i32 20
  %75 = load i32, ptr %74, align 4, !tbaa !38
  %76 = icmp slt i32 %72, %75
  br i1 %76, label %77, label %97

77:                                               ; preds = %71
  %78 = load ptr, ptr %7, align 8, !tbaa !42
  %79 = load i32, ptr %9, align 4, !tbaa !3
  %80 = sext i32 %79 to i64
  %81 = getelementptr inbounds i32, ptr %78, i64 %80
  %82 = load i32, ptr %81, align 4, !tbaa !3
  %83 = xor i32 %82, -1
  %84 = load ptr, ptr %8, align 8, !tbaa !42
  %85 = load i32, ptr %9, align 4, !tbaa !3
  %86 = sext i32 %85 to i64
  %87 = getelementptr inbounds i32, ptr %84, i64 %86
  %88 = load i32, ptr %87, align 4, !tbaa !3
  %89 = and i32 %83, %88
  %90 = load ptr, ptr %6, align 8, !tbaa !42
  %91 = load i32, ptr %9, align 4, !tbaa !3
  %92 = sext i32 %91 to i64
  %93 = getelementptr inbounds i32, ptr %90, i64 %92
  store i32 %89, ptr %93, align 4, !tbaa !3
  br label %94

94:                                               ; preds = %77
  %95 = load i32, ptr %9, align 4, !tbaa !3
  %96 = add nsw i32 %95, 1
  store i32 %96, ptr %9, align 4, !tbaa !3
  br label %71, !llvm.loop !134

97:                                               ; preds = %71
  br label %160

98:                                               ; preds = %67, %64
  %99 = load i32, ptr %10, align 4, !tbaa !3
  %100 = icmp ne i32 %99, 0
  br i1 %100, label %132, label %101

101:                                              ; preds = %98
  %102 = load i32, ptr %11, align 4, !tbaa !3
  %103 = icmp ne i32 %102, 0
  br i1 %103, label %104, label %132

104:                                              ; preds = %101
  store i32 0, ptr %9, align 4, !tbaa !3
  br label %105

105:                                              ; preds = %128, %104
  %106 = load i32, ptr %9, align 4, !tbaa !3
  %107 = load ptr, ptr %3, align 8, !tbaa !7
  %108 = getelementptr inbounds nuw %struct.Odc_Man_t_, ptr %107, i32 0, i32 20
  %109 = load i32, ptr %108, align 4, !tbaa !38
  %110 = icmp slt i32 %106, %109
  br i1 %110, label %111, label %131

111:                                              ; preds = %105
  %112 = load ptr, ptr %7, align 8, !tbaa !42
  %113 = load i32, ptr %9, align 4, !tbaa !3
  %114 = sext i32 %113 to i64
  %115 = getelementptr inbounds i32, ptr %112, i64 %114
  %116 = load i32, ptr %115, align 4, !tbaa !3
  %117 = load ptr, ptr %8, align 8, !tbaa !42
  %118 = load i32, ptr %9, align 4, !tbaa !3
  %119 = sext i32 %118 to i64
  %120 = getelementptr inbounds i32, ptr %117, i64 %119
  %121 = load i32, ptr %120, align 4, !tbaa !3
  %122 = xor i32 %121, -1
  %123 = and i32 %116, %122
  %124 = load ptr, ptr %6, align 8, !tbaa !42
  %125 = load i32, ptr %9, align 4, !tbaa !3
  %126 = sext i32 %125 to i64
  %127 = getelementptr inbounds i32, ptr %124, i64 %126
  store i32 %123, ptr %127, align 4, !tbaa !3
  br label %128

128:                                              ; preds = %111
  %129 = load i32, ptr %9, align 4, !tbaa !3
  %130 = add nsw i32 %129, 1
  store i32 %130, ptr %9, align 4, !tbaa !3
  br label %105, !llvm.loop !135

131:                                              ; preds = %105
  br label %159

132:                                              ; preds = %101, %98
  store i32 0, ptr %9, align 4, !tbaa !3
  br label %133

133:                                              ; preds = %155, %132
  %134 = load i32, ptr %9, align 4, !tbaa !3
  %135 = load ptr, ptr %3, align 8, !tbaa !7
  %136 = getelementptr inbounds nuw %struct.Odc_Man_t_, ptr %135, i32 0, i32 20
  %137 = load i32, ptr %136, align 4, !tbaa !38
  %138 = icmp slt i32 %134, %137
  br i1 %138, label %139, label %158

139:                                              ; preds = %133
  %140 = load ptr, ptr %7, align 8, !tbaa !42
  %141 = load i32, ptr %9, align 4, !tbaa !3
  %142 = sext i32 %141 to i64
  %143 = getelementptr inbounds i32, ptr %140, i64 %142
  %144 = load i32, ptr %143, align 4, !tbaa !3
  %145 = load ptr, ptr %8, align 8, !tbaa !42
  %146 = load i32, ptr %9, align 4, !tbaa !3
  %147 = sext i32 %146 to i64
  %148 = getelementptr inbounds i32, ptr %145, i64 %147
  %149 = load i32, ptr %148, align 4, !tbaa !3
  %150 = and i32 %144, %149
  %151 = load ptr, ptr %6, align 8, !tbaa !42
  %152 = load i32, ptr %9, align 4, !tbaa !3
  %153 = sext i32 %152 to i64
  %154 = getelementptr inbounds i32, ptr %151, i64 %153
  store i32 %150, ptr %154, align 4, !tbaa !3
  br label %155

155:                                              ; preds = %139
  %156 = load i32, ptr %9, align 4, !tbaa !3
  %157 = add nsw i32 %156, 1
  store i32 %157, ptr %9, align 4, !tbaa !3
  br label %133, !llvm.loop !136

158:                                              ; preds = %133
  br label %159

159:                                              ; preds = %158, %131
  br label %160

160:                                              ; preds = %159, %97
  br label %161

161:                                              ; preds = %160, %63
  call void @llvm.lifetime.end.p0(i64 4, ptr %11) #10
  call void @llvm.lifetime.end.p0(i64 4, ptr %10) #10
  call void @llvm.lifetime.end.p0(i64 4, ptr %9) #10
  call void @llvm.lifetime.end.p0(i64 8, ptr %8) #10
  call void @llvm.lifetime.end.p0(i64 8, ptr %7) #10
  call void @llvm.lifetime.end.p0(i64 8, ptr %6) #10
  call void @llvm.lifetime.end.p0(i64 8, ptr %5) #10
  ret void
}